; Function Attrs: mustprogress nofree norecurse nosync nounwind willreturn memory(argmem: write) uwtable
define void @ossl_ml_dsa_key_compress_decompose(i32 noundef %0, i32 noundef %1, ptr noundef writeonly captures(none) initializes((0, 4)) %2, ptr noundef writeonly captures(none) initializes((0, 4)) %3) local_unnamed_addr #2 {
  %5 = add i32 %0, 127
  %6 = lshr i32 %5, 7
  %7 = icmp eq i32 %1, 261888
  br i1 %7, label %8, label %13

8:                                                ; preds = %4
  %9 = mul nuw nsw i32 %6, 1025
  %10 = add nuw nsw i32 %9, 2097152
  %11 = lshr i32 %10, 22
  %12 = and i32 %11, 15
  br label %ossl_ml_dsa_key_compress_high_bits.exit

13:                                               ; preds = %4
  %14 = mul nuw nsw i32 %6, 11275
  %15 = add nuw nsw i32 %14, 8388608
  %16 = lshr i32 %15, 24
  %17 = icmp ugt i32 %5, 8285311
  %18 = select i1 %17, i32 0, i32 %16
  br label %ossl_ml_dsa_key_compress_high_bits.exit

ossl_ml_dsa_key_compress_high_bits.exit:          ; preds = %8, %13
  %.0.i = phi i32 [ %12, %8 ], [ %18, %13 ]
  store i32 %.0.i, ptr %2, align 4, !tbaa !3
  %19 = shl i32 %1, 1
  %20 = mul i32 %19, %.0.i
  %21 = sub i32 %0, %20
  %22 = icmp sgt i32 %21, 4190208
  %.neg = select i1 %22, i32 -8380417, i32 0
  %23 = add i32 %.neg, %21
  store i32 %23, ptr %3, align 4, !tbaa !3
  ret void
}